(dp0
S'cookies'
p1
(dp2
S'webwx_data_ticket'
p3
S'gSe299UTYTmxWIjnoUMh77bh'
p4
sS'wxuin'
p5
S'3482576523'
p6
sS'webwxuvid'
p7
S'aeb4b28190c7ffe3666fd8e00f8c3cbc6cf4b9690c868f6813d4f707a96840487e57edb34c34e32ba554993184f6ca0b'
p8
sS'webwx_auth_ticket'
p9
S'CIsBEIDQ8MgJGoABpKCWtJor82RI79EwBGgBCDYsYDIwDur1tQxCPHuutDQ8Pm79BNd+iSJ8SHC5Ir5E0qfez0GqOct5YVq1CedslY4Q9L2RTrRkvYRQ4OJYAYMPxsSJBfOWCdVaauAPx8EQ+pe9lpmtXZ2HI7qc1/X544vGoFiwA+awAc/P095hLzk='
p10
sS'wxloadtime'
p11
S'1490538184'
p12
sS'wxsid'
p13
S'78CHxKpGogAbFz9l'
p14
sS'mm_lang'
p15
S'zh_CN'
p16
ssS'version'
p17
S'1.3.1'
p18
sS'storage'
p19
(dp20
S'userName'
p21
V@006181efca80f19ae3bf5e4a8a8fd7f3dc0681e7a151769ed436fc55cba7d253
p22
sS'lastInputUserName'
p23
NsS'memberList'
p24
(lp25
(dp26
S'UserName'
p27
g22
sS'City'
p28
S''
p29
sS'DisplayName'
p30
g29
sS'UniFriend'
p31
I0
sS'OwnerUin'
p32
I0
sS'MemberList'
p33
(lp34
sS'PYQuanPin'
p35
V
p36
sS'RemarkPYInitial'
p37
g36
sS'Uin'
p38
I3482576523
sS'AppAccountFlag'
p39
I0
sS'VerifyFlag'
p40
I0
sS'Province'
p41
g29
sS'KeyWord'
p42
g29
sS'RemarkName'
p43
g36
sS'PYInitial'
p44
g36
sS'ChatRoomId'
p45
I0
sS'HideInputBarFlag'
p46
I0
sVHeadImgFlag
p47
I1
sS'EncryChatRoomId'
p48
g29
sS'AttrStatus'
p49
I0
sS'SnsFlag'
p50
I1
sS'MemberCount'
p51
I0
sVWebWxPluginSwitch
p52
I0
sS'Alias'
p53
g29
sS'Signature'
p54
g36
sS'ContactFlag'
p55
I0
sS'NickName'
p56
VDouble_Seven
p57
sS'RemarkPYQuanPin'
p58
g36
sS'HeadImgUrl'
p59
V/cgi-bin/mmwebwx-bin/webwxgeticon?seq=2085523463&username=@006181efca80f19ae3bf5e4a8a8fd7f3dc0681e7a151769ed436fc55cba7d253&skey=@crypt_98b17bc9_c0d40bb0f59026bda75ed44762f8318c
p60
sS'Sex'
p61
I1
sS'StarFriend'
p62
I0
sS'Statues'
p63
I0
sa(dp64
VUserName
p65
V@9fb30dad713cf25bedd439f38b7d1ea1
p66
sVCity
p67
g36
sVSnsFlag
p68
I49
sVDisplayName
p69
g36
sVUniFriend
p70
I0
sVMemberCount
p71
I0
sVOwnerUin
p72
I0
sVMemberList
p73
(lp74
sVAlias
p75
g36
sVPYQuanPin
p76
Vatiger77
p77
sVSignature
p78
g36
sVRemarkPYInitial
p79
g36
sVContactFlag
p80
I3
sVUin
p81
I0
sVNickName
p82
Vatiger77
p83
sVAppAccountFlag
p84
I0
sVVerifyFlag
p85
I0
sVRemarkPYQuanPin
p86
g36
sVHeadImgUrl
p87
V/cgi-bin/mmwebwx-bin/webwxgeticon?seq=601540040&username=@9fb30dad713cf25bedd439f38b7d1ea1&skey=@crypt_98b17bc9_c0d40bb0f59026bda75ed44762f8318c
p88
sVKeyWord
p89
Vati
p90
sVProvince
p91
VMale
p92
sVPYInitial
p93
VATIGER77
p94
sVRemarkName
p95
g36
sVIsOwner
p96
I0
sVSex
p97
I1
sVStarFriend
p98
I0
sVHideInputBarFlag
p99
I0
sVChatRoomId
p100
I0
sVEncryChatRoomId
p101
g36
sVAttrStatus
p102
I232383
sVStatues
p103
I0
sasS'chatroomList'
p104
(lp105
sS'nickName'
p106
g57
sS'mpList'
p107
(lp108
ssS'loginInfo'
p109
(dp110
S'SyncKey'
p111
(dp112
VCount
p113
I4
sVList
p114
(lp115
(dp116
VVal
p117
I601540038
sVKey
p118
I1
sa(dp119
VVal
p120
I601540049
sVKey
p121
I2
sa(dp122
VVal
p123
I601540044
sVKey
p124
I3
sa(dp125
VVal
p126
I1490525641
sVKey
p127
I1000
sassS'syncUrl'
p128
S'https://webpush.wx2.qq.com/cgi-bin/mmwebwx-bin'
p129
sS'skey'
p130
V@crypt_98b17bc9_c0d40bb0f59026bda75ed44762f8318c
p131
sS'wxuin'
p132
V3482576523
p133
sS'synckey'
p134
S'1_601540038|2_601540049|3_601540044|1000_1490525641'
p135
sS'url'
p136
Vhttps://wx2.qq.com/cgi-bin/mmwebwx-bin
p137
sS'pass_ticket'
p138
V%2BPPPc27s%2FdAYOb0r3X%2FnouMSO6hKpnRlNAJm%2FwZEmZSZvLQbAsYVXRznp14G8ojC
p139
sS'wxsid'
p140
V78CHxKpGogAbFz9l
p141
sS'InviteStartCount'
p142
I40
sS'deviceid'
p143
S'e315651573062904'
p144
sS'fileUrl'
p145
S'https://file.wx2.qq.com/cgi-bin/mmwebwx-bin'
p146
sS'BaseRequest'
p147
(dp148
g38
g133
sS'Skey'
p149
g131
sS'DeviceID'
p150
g139
sS'Sid'
p151
g141
ssS'User'
p152
ccopy_reg
_reconstructor
p153
(citchat.storage.templates
User
p154
c__builtin__
dict
p155
(dp156
g27
g22
sg28
g29
sg30
g29
sg31
I0
sg33
g34
sg35
g36
sg37
g36
sg61
I1
sg39
I0
sg40
I0
sg41
g29
sg42
g29
sg43
g36
sg44
g36
sg45
I0
sg46
I0
sg47
I1
sg48
g29
sg49
I0
sg52
I0
sg50
I1
sg51
I0
sg32
I0
sg53
g29
sg54
g36
sg55
I0
sg56
g57
sg58
g36
sg59
g60
sg38
I3482576523
sg62
I0
sg63
I0
stp157
Rp158
(dp159
g27
g22
sg28
g29
sg30
g29
sg31
I0
sg33
g34
sg35
g36
sg37
g36
sg61
I1
sg39
I0
sg40
I0
sg41
g29
sg42
g29
sg43
g36
sg44
g36
sg45
I0
sg46
I0
sg47
I1
sg48
g29
sg49
I0
sg52
I0
sg50
I1
sg51
I0
sg32
I0
sg53
g29
sg54
g36
sg55
I0
sg56
g57
sg58
g36
sg59
g60
sg38
I3482576523
sg62
I0
sg63
I0
sbss.